; ModuleID = '10/2091.c'
source_filename = "10/2091.c"
target datalayout = "e-m:e-p270:32:32-p271:32:32-p272:64:64-i64:64-f80:128-n8:16:32:64-S128"
target triple = "x86_64-pc-linux-gnu"

@max = dso_local global i32 0, align 4
@m = common dso_local global i32* null, align 8
@n = common dso_local global i32 0, align 4
@h = common dso_local global i32* null, align 8
@.str = private unnamed_addr constant [3 x i8] c"%d\00", align 1

; Function Attrs: noinline nounwind uwtable
define dso_local void @calc(i32 %0) #0 {
  %2 = alloca i32, align 4
  %3 = alloca i32, align 4
  store i32 %0, i32* %2, align 4
  %4 = load i32*, i32** @m, align 8
  %5 = load i32, i32* %2, align 4
  %6 = sext i32 %5 to i64
  %7 = getelementptr inbounds i32, i32* %4, i64 %6
  store i32 1, i32* %7, align 4
  %8 = load i32, i32* %2, align 4
  %9 = add nsw i32 %8, 1
  store i32 %9, i32* %3, align 4
  br label %10

10:                                               ; preds = %53, %1
  %11 = load i32, i32* %3, align 4
  %12 = load i32, i32* @n, align 4
  %13 = sub nsw i32 %12, 1
  %14 = icmp sle i32 %11, %13
  br i1 %14, label %15, label %56

15:                                               ; preds = %10
  %16 = load i32*, i32** @h, align 8
  %17 = load i32, i32* %3, align 4
  %18 = sext i32 %17 to i64
  %19 = getelementptr inbounds i32, i32* %16, i64 %18
  %20 = load i32, i32* %19, align 4
  %21 = load i32*, i32** @h, align 8
  %22 = load i32, i32* %2, align 4
  %23 = sext i32 %22 to i64
  %24 = getelementptr inbounds i32, i32* %21, i64 %23
  %25 = load i32, i32* %24, align 4
  %26 = icmp sle i32 %20, %25
  br i1 %26, label %27, label %52

27:                                               ; preds = %15
  %28 = load i32*, i32** @m, align 8
  %29 = load i32, i32* %3, align 4
  %30 = sext i32 %29 to i64
  %31 = getelementptr inbounds i32, i32* %28, i64 %30
  %32 = load i32, i32* %31, align 4
  %33 = add nsw i32 %32, 1
  %34 = load i32*, i32** @m, align 8
  %35 = load i32, i32* %2, align 4
  %36 = sext i32 %35 to i64
  %37 = getelementptr inbounds i32, i32* %34, i64 %36
  %38 = load i32, i32* %37, align 4
  %39 = icmp sgt i32 %33, %38
  br i1 %39, label %40, label %51

40:                                               ; preds = %27
  %41 = load i32*, i32** @m, align 8
  %42 = load i32, i32* %3, align 4
  %43 = sext i32 %42 to i64
  %44 = getelementptr inbounds i32, i32* %41, i64 %43
  %45 = load i32, i32* %44, align 4
  %46 = add nsw i32 %45, 1
  %47 = load i32*, i32** @m, align 8
  %48 = load i32, i32* %2, align 4
  %49 = sext i32 %48 to i64
  %50 = getelementptr inbounds i32, i32* %47, i64 %49
  store i32 %46, i32* %50, align 4
  br label %51

51:                                               ; preds = %40, %27
  br label %52

52:                                               ; preds = %51, %15
  br label %53

53:                                               ; preds = %52
  %54 = load i32, i32* %3, align 4
  %55 = add nsw i32 %54, 1
  store i32 %55, i32* %3, align 4
  br label %10

56:                                               ; preds = %10
  %57 = load i32*, i32** @m, align 8
  %58 = load i32, i32* %2, align 4
  %59 = sext i32 %58 to i64
  %60 = getelementptr inbounds i32, i32* %57, i64 %59
  %61 = load i32, i32* %60, align 4
  %62 = load i32, i32* @max, align 4
  %63 = icmp sgt i32 %61, %62
  br i1 %63, label %64, label %70

64:                                               ; preds = %56
  %65 = load i32*, i32** @m, align 8
  %66 = load i32, i32* %2, align 4
  %67 = sext i32 %66 to i64
  %68 = getelementptr inbounds i32, i32* %65, i64 %67
  %69 = load i32, i32* %68, align 4
  store i32 %69, i32* @max, align 4
  br label %70

70:                                               ; preds = %64, %56
  ret void
}

; Function Attrs: noinline nounwind uwtable
define dso_local i32 @main() #0 {
  %1 = alloca i32, align 4
  %2 = alloca i32, align 4
  store i32 0, i32* %1, align 4
  %3 = call i32 (i8*, ...) @__isoc99_scanf(i8* getelementptr inbounds ([3 x i8], [3 x i8]* @.str, i64 0, i64 0), i32* @n)
  %4 = load i32, i32* @n, align 4
  %5 = sext i32 %4 to i64
  %6 = mul i64 4, %5
  %7 = call noalias i8* @malloc(i64 %6) #3
  %8 = bitcast i8* %7 to i32*
  store i32* %8, i32** @h, align 8
  %9 = load i32, i32* @n, align 4
  %10 = sext i32 %9 to i64
  %11 = mul i64 4, %10
  %12 = call noalias i8* @malloc(i64 %11) #3
  %13 = bitcast i8* %12 to i32*
  store i32* %13, i32** @m, align 8
  store i32 0, i32* %2, align 4
  br label %14

14:                                               ; preds = %25, %0
  %15 = load i32, i32* %2, align 4
  %16 = load i32, i32* @n, align 4
  %17 = sub nsw i32 %16, 1
  %18 = icmp sle i32 %15, %17
  br i1 %18, label %19, label %28

19:                                               ; preds = %14
  %20 = load i32*, i32** @h, align 8
  %21 = load i32, i32* %2, align 4
  %22 = sext i32 %21 to i64
  %23 = getelementptr inbounds i32, i32* %20, i64 %22
  %24 = call i32 (i8*, ...) @__isoc99_scanf(i8* getelementptr inbounds ([3 x i8], [3 x i8]* @.str, i64 0, i64 0), i32* %23)
  br label %25

25:                                               ; preds = %19
  %26 = load i32, i32* %2, align 4
  %27 = add nsw i32 %26, 1
  store i32 %27, i32* %2, align 4
  br label %14

28:                                               ; preds = %14
  %29 = load i32*, i32** @m, align 8
  %30 = load i32, i32* @n, align 4
  %31 = sext i32 %30 to i64
  %32 = getelementptr inbounds i32, i32* %29, i64 %31
  %33 = getelementptr inbounds i32, i32* %32, i64 -1
  store i32 1, i32* %33, align 4
  %34 = load i32, i32* @n, align 4
  %35 = sub nsw i32 %34, 2
  store i32 %35, i32* %2, align 4
  br label %36

36:                                               ; preds = %41, %28
  %37 = load i32, i32* %2, align 4
  %38 = icmp sge i32 %37, 0
  br i1 %38, label %39, label %44

39:                                               ; preds = %36
  %40 = load i32, i32* %2, align 4
  call void @calc(i32 %40)
  br label %41

41:                                               ; preds = %39
  %42 = load i32, i32* %2, align 4
  %43 = add nsw i32 %42, -1
  store i32 %43, i32* %2, align 4
  br label %36

44:                                               ; preds = %36
  %45 = load i32, i32* @max, align 4
  %46 = call i32 (i8*, ...) @printf(i8* getelementptr inbounds ([3 x i8], [3 x i8]* @.str, i64 0, i64 0), i32 %45)
  %47 = load i32, i32* %1, align 4
  ret i32 %47
}

declare dso_local i32 @__isoc99_scanf(i8*, ...) #1

; Function Attrs: nounwind
declare dso_local noalias i8* @malloc(i64) #2

declare dso_local i32 @printf(i8*, ...) #1


!llvm.module.flags = !{!0}
!llvm.ident = !{!1}

!0 = !{i32 1, !"wchar_size", i32 4}
!1 = !{!"clang version 10.0.0-4ubuntu1 "}
